; Function Attrs: mustprogress nounwind uwtable
define dso_local noundef nonnull align 8 dereferenceable(8) ptr @_ZN4llvm9DbgRecord10getContextEv(ptr nocapture noundef nonnull readonly align 8 dereferenceable(33) %0) local_unnamed_addr #0 align 2 {
  %2 = getelementptr inbounds nuw i8, ptr %0, i64 16
  %3 = load ptr, ptr %2, align 8
  %4 = load ptr, ptr %3, align 8
  %5 = getelementptr inbounds i8, ptr %4, i64 40
  %6 = load ptr, ptr %5, align 8
  %7 = tail call noundef nonnull align 8 dereferenceable(8) ptr @_ZNK4llvm10BasicBlock10getContextEv(ptr noundef nonnull align 8 dereferenceable(80) %6) #17
  ret ptr %7
}